target datalayout = "e-m:e-p270:32:32-p271:32:32-p272:64:64-i64:64-i128:128-f80:128-n8:16:32:64-S128"
target triple = "x86_64-pc-linux-gnu"

@.str.17 = private unnamed_addr constant [29 x i8] c"\\ No newline at end of file\0A\00", align 1

; Function Attrs: nounwind uwtable
define internal ptr @get_nth_line(i64 noundef %0, ptr noundef %1, ptr noundef %2) #0 {
  %4 = alloca ptr, align 8
  %5 = alloca i64, align 8
  %6 = alloca ptr, align 8
  %7 = alloca ptr, align 8
  store i64 %0, ptr %5, align 8, !tbaa !9
  store ptr %1, ptr %6, align 8, !tbaa !93
  store ptr %2, ptr %7, align 8, !tbaa !23
  %8 = load i64, ptr %5, align 8, !tbaa !9
  %9 = icmp eq i64 %8, 0
  br i1 %9, label %10, label %12

10:                                               ; preds = %3
  %11 = load ptr, ptr %7, align 8, !tbaa !23
  store ptr %11, ptr %4, align 8
  br label %20

12:                                               ; preds = %3
  %13 = load ptr, ptr %7, align 8, !tbaa !23
  %14 = load ptr, ptr %6, align 8, !tbaa !93
  %15 = load i64, ptr %5, align 8, !tbaa !9
  %16 = getelementptr inbounds i64, ptr %14, i64 %15
  %17 = load i64, ptr %16, align 8, !tbaa !9
  %18 = getelementptr inbounds nuw i8, ptr %13, i64 %17
  %19 = getelementptr inbounds i8, ptr %18, i64 1
  store ptr %19, ptr %4, align 8
  br label %20

20:                                               ; preds = %12, %10
  %21 = load ptr, ptr %4, align 8
  ret ptr %21
}

; Function Attrs: nounwind uwtable
define internal void @print_line(ptr noundef %0, i8 noundef signext %1, i64 noundef %2, ptr noundef %3, ptr noundef %4, ptr noundef %5, ptr noundef %6, ptr noundef %7) #0 {
  %9 = alloca ptr, align 8
  %10 = alloca i8, align 1
  %11 = alloca i64, align 8
  %12 = alloca ptr, align 8
  %13 = alloca ptr, align 8
  %14 = alloca ptr, align 8
  %15 = alloca ptr, align 8
  %16 = alloca ptr, align 8
  %17 = alloca ptr, align 8
  %18 = alloca ptr, align 8
  %19 = alloca i32, align 4
  store ptr %0, ptr %9, align 8, !tbaa !28
  store i8 %1, ptr %10, align 1, !tbaa !118
  store i64 %2, ptr %11, align 8, !tbaa !9
  store ptr %3, ptr %12, align 8, !tbaa !93
  store ptr %4, ptr %13, align 8, !tbaa !23
  store ptr %5, ptr %14, align 8, !tbaa !28
  store ptr %6, ptr %15, align 8, !tbaa !28
  store ptr %7, ptr %16, align 8, !tbaa !209
  call void @llvm.lifetime.start.p0(i64 8, ptr %17) #9
  %20 = load i64, ptr %11, align 8, !tbaa !9
  %21 = load ptr, ptr %12, align 8, !tbaa !93
  %22 = load ptr, ptr %13, align 8, !tbaa !23
  %23 = call ptr @get_nth_line(i64 noundef %20, ptr noundef %21, ptr noundef %22)
  store ptr %23, ptr %17, align 8, !tbaa !28
  call void @llvm.lifetime.start.p0(i64 8, ptr %18) #9
  %24 = load i64, ptr %11, align 8, !tbaa !9
  %25 = add nsw i64 %24, 1
  %26 = load ptr, ptr %12, align 8, !tbaa !93
  %27 = load ptr, ptr %13, align 8, !tbaa !23
  %28 = call ptr @get_nth_line(i64 noundef %25, ptr noundef %26, ptr noundef %27)
  store ptr %28, ptr %18, align 8, !tbaa !28
  call void @llvm.lifetime.start.p0(i64 4, ptr %19) #9
  store i32 0, ptr %19, align 4, !tbaa !20
  %29 = load ptr, ptr %18, align 8, !tbaa !28
  %30 = load ptr, ptr %17, align 8, !tbaa !28
  %31 = icmp ugt ptr %29, %30
  br i1 %31, label %32, label %41

32:                                               ; preds = %8
  %33 = load ptr, ptr %18, align 8, !tbaa !28
  %34 = getelementptr inbounds i8, ptr %33, i64 -1
  %35 = load i8, ptr %34, align 1, !tbaa !118
  %36 = sext i8 %35 to i32
  %37 = icmp eq i32 %36, 10
  br i1 %37, label %38, label %41

38:                                               ; preds = %32
  %39 = load ptr, ptr %18, align 8, !tbaa !28
  %40 = getelementptr inbounds i8, ptr %39, i32 -1
  store ptr %40, ptr %18, align 8, !tbaa !28
  store i32 1, ptr %19, align 4, !tbaa !20
  br label %41

41:                                               ; preds = %38, %32, %8
  %42 = load ptr, ptr %9, align 8, !tbaa !28
  %43 = load ptr, ptr %16, align 8, !tbaa !209
  %44 = call i32 @fputs(ptr noundef %42, ptr noundef %43)
  %45 = load ptr, ptr %14, align 8, !tbaa !28
  %46 = load ptr, ptr %16, align 8, !tbaa !209
  %47 = call i32 @fputs(ptr noundef %45, ptr noundef %46)
  %48 = load i8, ptr %10, align 1, !tbaa !118
  %49 = sext i8 %48 to i32
  %50 = load ptr, ptr %16, align 8, !tbaa !209
  %51 = call i32 @putc(i32 noundef %49, ptr noundef %50)
  %52 = load ptr, ptr %17, align 8, !tbaa !28
  %53 = load ptr, ptr %18, align 8, !tbaa !28
  %54 = load ptr, ptr %17, align 8, !tbaa !28
  %55 = ptrtoint ptr %53 to i64
  %56 = ptrtoint ptr %54 to i64
  %57 = sub i64 %55, %56
  %58 = load ptr, ptr %16, align 8, !tbaa !209
  %59 = call i64 @fwrite(ptr noundef %52, i64 noundef 1, i64 noundef %57, ptr noundef %58)
  %60 = load ptr, ptr %15, align 8, !tbaa !28
  %61 = load ptr, ptr %16, align 8, !tbaa !209
  %62 = call i32 @fputs(ptr noundef %60, ptr noundef %61)
  %63 = load ptr, ptr %16, align 8, !tbaa !209
  %64 = call i32 @putc(i32 noundef 10, ptr noundef %63)
  %65 = load i32, ptr %19, align 4, !tbaa !20
  %66 = icmp ne i32 %65, 0
  br i1 %66, label %70, label %67

67:                                               ; preds = %41
  %68 = load ptr, ptr %16, align 8, !tbaa !209
  %69 = call i32 @fputs(ptr noundef @.str.17, ptr noundef %68)
  br label %70

70:                                               ; preds = %67, %41
  call void @llvm.lifetime.end.p0(i64 4, ptr %19) #9
  call void @llvm.lifetime.end.p0(i64 8, ptr %18) #9
  call void @llvm.lifetime.end.p0(i64 8, ptr %17) #9
  ret void
}