; Function Attrs: nofree nounwind uwtable
define internal fastcc void @print_line(ptr noundef readonly captures(none) %0, i8 noundef signext range(i8 32, 46) %1, i64 noundef %2, ptr noundef readonly captures(none) %3, ptr noundef %4, ptr noundef readonly captures(none) %5, ptr noundef readonly captures(none) %6, ptr noundef captures(none) %7) unnamed_addr #3 {
  %9 = icmp eq i64 %2, 0
  br i1 %9, label %get_nth_line.exit.thread, label %get_nth_line.exit

get_nth_line.exit:                                ; preds = %8
  %10 = getelementptr inbounds i64, ptr %3, i64 %2
  %11 = load i64, ptr %10, align 8, !tbaa !76
  %12 = getelementptr inbounds nuw i8, ptr %4, i64 %11
  %13 = getelementptr inbounds nuw i8, ptr %12, i64 1
  %14 = add nsw i64 %2, 1
  %15 = icmp eq i64 %14, 0
  br i1 %15, label %get_nth_line.exit28, label %get_nth_line.exit.thread

get_nth_line.exit.thread:                         ; preds = %8, %get_nth_line.exit
  %16 = phi i64 [ %14, %get_nth_line.exit ], [ 1, %8 ]
  %.0.i30 = phi ptr [ %13, %get_nth_line.exit ], [ %4, %8 ]
  %17 = getelementptr inbounds i64, ptr %3, i64 %16
  %18 = load i64, ptr %17, align 8, !tbaa !76
  %19 = getelementptr inbounds nuw i8, ptr %4, i64 %18
  %20 = getelementptr inbounds nuw i8, ptr %19, i64 1
  br label %get_nth_line.exit28

get_nth_line.exit28:                              ; preds = %get_nth_line.exit, %get_nth_line.exit.thread
  %.0.i31 = phi ptr [ %.0.i30, %get_nth_line.exit.thread ], [ %13, %get_nth_line.exit ]
  %.0.i27 = phi ptr [ %20, %get_nth_line.exit.thread ], [ %4, %get_nth_line.exit ]
  %21 = icmp ugt ptr %.0.i27, %.0.i31
  br i1 %21, label %22, label %.critedge

22:                                               ; preds = %get_nth_line.exit28
  %23 = getelementptr inbounds i8, ptr %.0.i27, i64 -1
  %24 = load i8, ptr %23, align 1, !tbaa !101
  %.not = icmp eq i8 %24, 10
  %spec.select = select i1 %.not, ptr %23, ptr %.0.i27
  %25 = tail call i32 @fputs(ptr noundef %0, ptr noundef %7)
  %26 = tail call i32 @fputs(ptr noundef %5, ptr noundef %7)
  %27 = zext nneg i8 %1 to i32
  %28 = tail call i32 @putc(i32 noundef %27, ptr noundef %7)
  %29 = ptrtoint ptr %spec.select to i64
  %30 = ptrtoint ptr %.0.i31 to i64
  %31 = sub i64 %29, %30
  %32 = tail call i64 @fwrite(ptr noundef %.0.i31, i64 noundef 1, i64 noundef %31, ptr noundef %7)
  %33 = tail call i32 @fputs(ptr noundef %6, ptr noundef %7)
  %34 = tail call i32 @putc(i32 noundef 10, ptr noundef %7)
  br i1 %.not, label %47, label %45

.critedge:                                        ; preds = %get_nth_line.exit28
  %35 = tail call i32 @fputs(ptr noundef %0, ptr noundef %7)
  %36 = tail call i32 @fputs(ptr noundef %5, ptr noundef %7)
  %37 = zext nneg i8 %1 to i32
  %38 = tail call i32 @putc(i32 noundef %37, ptr noundef %7)
  %39 = ptrtoint ptr %.0.i27 to i64
  %40 = ptrtoint ptr %.0.i31 to i64
  %41 = sub i64 %39, %40
  %42 = tail call i64 @fwrite(ptr noundef %.0.i31, i64 noundef 1, i64 noundef %41, ptr noundef %7)
  %43 = tail call i32 @fputs(ptr noundef %6, ptr noundef %7)
  %44 = tail call i32 @putc(i32 noundef 10, ptr noundef %7)
  br label %45

45:                                               ; preds = %.critedge, %22
  %46 = tail call i64 @fwrite(ptr nonnull @.str.17, i64 28, i64 1, ptr %7)
  br label %47

47:                                               ; preds = %45, %22
  ret void
}